target datalayout = "e-m:e-p270:32:32-p271:32:32-p272:64:64-i64:64-i128:128-f80:128-n8:16:32:64-S128"
target triple = "x86_64-pc-linux-gnu"

%struct._packet_info = type { ptr, ptr, i32, i32, %struct.nstime_t, %struct.nstime_t, %struct.nstime_t, i8, ptr, ptr, ptr, ptr, %struct._address, %struct._address, %struct._address, %struct._address, %struct._address, %struct._address, i32, ptr, i8, [3 x i8], %struct.anon, i32, i32, i32, i32, ptr, i8, ptr, ptr, i16, i16, i32, i32, i16, i32, i32, ptr, ptr, ptr, i8, i8, i16, i16, i16, i32, i16, i16, ptr, ptr, ptr, ptr, ptr, i32, i32 }
%struct.nstime_t = type { i64, i32 }
%struct._address = type { i32, i32, ptr, ptr }
%struct.anon = type { i8, [3 x i8] }

@hf_ua3g_command_led = internal global i32 0, align 4
@hf_ua3g_command_led_number = internal global i32 0, align 4
@.str.1218 = private unnamed_addr constant [8 x i8] c"Unknown\00", align 1
@.str.1223 = private unnamed_addr constant [5 x i8] c": %s\00", align 1

; Function Attrs: null_pointer_is_valid sspstrong uwtable
define internal void @decode_led_command(ptr noundef %0, ptr noundef %1, ptr noundef %2, i32 noundef %3) #0 {
  %5 = alloca ptr, align 8
  %6 = alloca ptr, align 8
  %7 = alloca ptr, align 8
  %8 = alloca i32, align 4
  %9 = alloca i32, align 4
  %10 = alloca i32, align 4
  store ptr %0, ptr %5, align 8
  store ptr %1, ptr %6, align 8
  store ptr %2, ptr %7, align 8
  store i32 %3, ptr %8, align 4
  call void @llvm.lifetime.start.p0(i64 4, ptr %9) #8
  %11 = load ptr, ptr %6, align 8
  %12 = load i32, ptr %8, align 4
  %13 = call zeroext i8 @tvb_get_uint8(ptr noundef %11, i32 noundef %12)
  %14 = zext i8 %13 to i32
  store i32 %14, ptr %9, align 4
  %15 = load ptr, ptr %7, align 8
  %16 = getelementptr inbounds nuw %struct._packet_info, ptr %15, i32 0, i32 1
  %17 = load ptr, ptr %16, align 8
  %18 = load i32, ptr %9, align 4
  %19 = call ptr @val_to_str_const(i32 noundef %18, ptr noundef @str_command_led, ptr noundef @.str.1218)
  call void (ptr, i32, ptr, ...) @col_append_fstr(ptr noundef %17, i32 noundef 25, ptr noundef @.str.1223, ptr noundef %19)
  %20 = load ptr, ptr %5, align 8
  %21 = icmp ne ptr %20, null
  br i1 %21, label %23, label %22

22:                                               ; preds = %4
  store i32 1, ptr %10, align 4
  br label %42

23:                                               ; preds = %4
  %24 = load ptr, ptr %5, align 8
  %25 = load i32, ptr @hf_ua3g_command_led, align 4
  %26 = load ptr, ptr %6, align 8
  %27 = load i32, ptr %8, align 4
  %28 = call ptr @proto_tree_add_item(ptr noundef %24, i32 noundef %25, ptr noundef %26, i32 noundef %27, i32 noundef 1, i32 noundef 0)
  %29 = load i32, ptr %9, align 4
  %30 = icmp sge i32 %29, 0
  br i1 %30, label %31, label %41

31:                                               ; preds = %23
  %32 = load i32, ptr %9, align 4
  %33 = icmp slt i32 %32, 7
  br i1 %33, label %34, label %41

34:                                               ; preds = %31
  %35 = load ptr, ptr %5, align 8
  %36 = load i32, ptr @hf_ua3g_command_led_number, align 4
  %37 = load ptr, ptr %6, align 8
  %38 = load i32, ptr %8, align 4
  %39 = add i32 %38, 1
  %40 = call ptr @proto_tree_add_item(ptr noundef %35, i32 noundef %36, ptr noundef %37, i32 noundef %39, i32 noundef 1, i32 noundef 0)
  br label %41

41:                                               ; preds = %34, %31, %23
  store i32 0, ptr %10, align 4
  br label %42

42:                                               ; preds = %41, %22
  call void @llvm.lifetime.end.p0(i64 4, ptr %9) #8
  %43 = load i32, ptr %10, align 4
  switch i32 %43, label %45 [
    i32 0, label %44
    i32 1, label %44
  ]

44:                                               ; preds = %42, %42
  ret void

45:                                               ; preds = %42
  unreachable
}