; Function Attrs: null_pointer_is_valid sspstrong uwtable
define internal fastcc void @decode_led_command(ptr noundef %0, ptr noundef %1, ptr noundef readonly captures(none) %2) unnamed_addr #0 {
  %4 = tail call zeroext i8 @tvb_get_uint8(ptr noundef %1, i32 noundef 3)
  %5 = zext i8 %4 to i32
  %6 = getelementptr inbounds nuw i8, ptr %2, i64 8
  %7 = load ptr, ptr %6, align 8
  %8 = tail call ptr @val_to_str_const(i32 noundef %5, ptr noundef nonnull @str_command_led, ptr noundef nonnull @.str.1218)
  tail call void (ptr, i32, ptr, ...) @col_append_fstr(ptr noundef %7, i32 noundef 25, ptr noundef nonnull @.str.1223, ptr noundef %8)
  %.not = icmp eq ptr %0, null
  br i1 %.not, label %16, label %9

9:                                                ; preds = %3
  %10 = load i32, ptr @hf_ua3g_command_led, align 4
  %11 = tail call ptr @proto_tree_add_item(ptr noundef nonnull %0, i32 noundef %10, ptr noundef %1, i32 noundef 3, i32 noundef 1, i32 noundef 0)
  %12 = icmp ult i8 %4, 7
  br i1 %12, label %13, label %16

13:                                               ; preds = %9
  %14 = load i32, ptr @hf_ua3g_command_led_number, align 4
  %15 = tail call ptr @proto_tree_add_item(ptr noundef nonnull %0, i32 noundef %14, ptr noundef %1, i32 noundef 4, i32 noundef 1, i32 noundef 0)
  br label %16

16:                                               ; preds = %9, %13, %3
  ret void
}